target datalayout = "e-m:e-p270:32:32-p271:32:32-p272:64:64-i64:64-i128:128-f80:128-n8:16:32:64-S128"
target triple = "x86_64-unknown-linux-gnu"

%struct.atomic_b_t = type { i8 }
%struct.atomic_p_t = type { ptr }

@dss_exhausted = internal global %struct.atomic_b_t zeroinitializer, align 1
@dss_max = internal global %struct.atomic_p_t zeroinitializer, align 8
@dss_base = internal global ptr null, align 8
@dss_extending = internal global %struct.atomic_b_t zeroinitializer, align 1

; Function Attrs: nounwind uwtable
define internal ptr @extent_dss_sbrk(i64 noundef %increment) #0 {
entry:
  %increment.addr = alloca i64, align 8
  store i64 %increment, ptr %increment.addr, align 8
  %0 = load i64, ptr %increment.addr, align 8
  %call = call ptr @sbrk(i64 noundef %0) #4
  ret ptr %call
}

; Function Attrs: nounwind uwtable
define hidden void @extent_dss_boot() #0 {
entry:
  %retval.i26 = alloca i32, align 4
  %mo.addr.i27 = alloca i32, align 4
  %retval.i17 = alloca i32, align 4
  %mo.addr.i18 = alloca i32, align 4
  %retval.i = alloca i32, align 4
  %mo.addr.i16 = alloca i32, align 4
  %a.addr.i8 = alloca ptr, align 8
  %val.addr.i9 = alloca i8, align 1
  %mo.addr.i10 = alloca i32, align 4
  %a.addr.i1 = alloca ptr, align 8
  %val.addr.i2 = alloca i8, align 1
  %mo.addr.i3 = alloca i32, align 4
  %a.addr.i = alloca ptr, align 8
  %val.addr.i = alloca ptr, align 8
  %mo.addr.i = alloca i32, align 4
  br label %do.body

do.body:                                          ; preds = %entry
  br label %do.end

do.end:                                           ; preds = %do.body
  %call = call ptr @extent_dss_sbrk(i64 noundef 0)
  store ptr %call, ptr @dss_base, align 8
  store ptr @dss_extending, ptr %a.addr.i8, align 8
  store i8 0, ptr %val.addr.i9, align 1
  store i32 0, ptr %mo.addr.i10, align 4
  %0 = load ptr, ptr %a.addr.i8, align 8
  %1 = load i32, ptr %mo.addr.i10, align 4
  store i32 %1, ptr %mo.addr.i16, align 4
  %2 = load i32, ptr %mo.addr.i16, align 4
  switch i32 %2, label %sw.epilog.i [
    i32 0, label %sw.bb.i
    i32 1, label %sw.bb1.i
    i32 2, label %sw.bb2.i
    i32 3, label %sw.bb3.i
    i32 4, label %sw.bb4.i
  ]

sw.bb.i:                                          ; preds = %do.end
  store i32 0, ptr %retval.i, align 4
  br label %atomic_enum_to_builtin.exit

sw.bb1.i:                                         ; preds = %do.end
  store i32 2, ptr %retval.i, align 4
  br label %atomic_enum_to_builtin.exit

sw.bb2.i:                                         ; preds = %do.end
  store i32 3, ptr %retval.i, align 4
  br label %atomic_enum_to_builtin.exit

sw.bb3.i:                                         ; preds = %do.end
  store i32 4, ptr %retval.i, align 4
  br label %atomic_enum_to_builtin.exit

sw.bb4.i:                                         ; preds = %do.end
  store i32 5, ptr %retval.i, align 4
  br label %atomic_enum_to_builtin.exit

sw.epilog.i:                                      ; preds = %do.end
  unreachable

atomic_enum_to_builtin.exit:                      ; preds = %sw.bb4.i, %sw.bb3.i, %sw.bb2.i, %sw.bb1.i, %sw.bb.i
  %3 = load i32, ptr %retval.i, align 4
  switch i32 %3, label %monotonic.i14 [
    i32 3, label %release.i13
    i32 5, label %seqcst.i12
  ]

monotonic.i14:                                    ; preds = %atomic_enum_to_builtin.exit
  %4 = load i8, ptr %val.addr.i9, align 1
  store atomic i8 %4, ptr %0 monotonic, align 1
  br label %atomic_store_b.exit15

release.i13:                                      ; preds = %atomic_enum_to_builtin.exit
  %5 = load i8, ptr %val.addr.i9, align 1
  store atomic i8 %5, ptr %0 release, align 1
  br label %atomic_store_b.exit15

seqcst.i12:                                       ; preds = %atomic_enum_to_builtin.exit
  %6 = load i8, ptr %val.addr.i9, align 1
  store atomic i8 %6, ptr %0 seq_cst, align 1
  br label %atomic_store_b.exit15

atomic_store_b.exit15:                            ; preds = %seqcst.i12, %release.i13, %monotonic.i14
  %7 = load ptr, ptr @dss_base, align 8
  %cmp = icmp eq ptr %7, inttoptr (i64 -1 to ptr)
  store ptr @dss_exhausted, ptr %a.addr.i1, align 8
  %frombool.i = zext i1 %cmp to i8
  store i8 %frombool.i, ptr %val.addr.i2, align 1
  store i32 0, ptr %mo.addr.i3, align 4
  %8 = load ptr, ptr %a.addr.i1, align 8
  %9 = load i32, ptr %mo.addr.i3, align 4
  store i32 %9, ptr %mo.addr.i18, align 4
  %10 = load i32, ptr %mo.addr.i18, align 4
  switch i32 %10, label %sw.epilog.i24 [
    i32 0, label %sw.bb.i23
    i32 1, label %sw.bb1.i22
    i32 2, label %sw.bb2.i21
    i32 3, label %sw.bb3.i20
    i32 4, label %sw.bb4.i19
  ]

sw.bb.i23:                                        ; preds = %atomic_store_b.exit15
  store i32 0, ptr %retval.i17, align 4
  br label %atomic_enum_to_builtin.exit25

sw.bb1.i22:                                       ; preds = %atomic_store_b.exit15
  store i32 2, ptr %retval.i17, align 4
  br label %atomic_enum_to_builtin.exit25

sw.bb2.i21:                                       ; preds = %atomic_store_b.exit15
  store i32 3, ptr %retval.i17, align 4
  br label %atomic_enum_to_builtin.exit25

sw.bb3.i20:                                       ; preds = %atomic_store_b.exit15
  store i32 4, ptr %retval.i17, align 4
  br label %atomic_enum_to_builtin.exit25

sw.bb4.i19:                                       ; preds = %atomic_store_b.exit15
  store i32 5, ptr %retval.i17, align 4
  br label %atomic_enum_to_builtin.exit25

sw.epilog.i24:                                    ; preds = %atomic_store_b.exit15
  unreachable

atomic_enum_to_builtin.exit25:                    ; preds = %sw.bb4.i19, %sw.bb3.i20, %sw.bb2.i21, %sw.bb1.i22, %sw.bb.i23
  %11 = load i32, ptr %retval.i17, align 4
  switch i32 %11, label %monotonic.i7 [
    i32 3, label %release.i6
    i32 5, label %seqcst.i5
  ]

monotonic.i7:                                     ; preds = %atomic_enum_to_builtin.exit25
  %12 = load i8, ptr %val.addr.i2, align 1
  store atomic i8 %12, ptr %8 monotonic, align 1
  br label %atomic_store_b.exit

release.i6:                                       ; preds = %atomic_enum_to_builtin.exit25
  %13 = load i8, ptr %val.addr.i2, align 1
  store atomic i8 %13, ptr %8 release, align 1
  br label %atomic_store_b.exit

seqcst.i5:                                        ; preds = %atomic_enum_to_builtin.exit25
  %14 = load i8, ptr %val.addr.i2, align 1
  store atomic i8 %14, ptr %8 seq_cst, align 1
  br label %atomic_store_b.exit

atomic_store_b.exit:                              ; preds = %seqcst.i5, %release.i6, %monotonic.i7
  %15 = load ptr, ptr @dss_base, align 8
  store ptr @dss_max, ptr %a.addr.i, align 8
  store ptr %15, ptr %val.addr.i, align 8
  store i32 0, ptr %mo.addr.i, align 4
  %16 = load ptr, ptr %a.addr.i, align 8
  %17 = load i32, ptr %mo.addr.i, align 4
  store i32 %17, ptr %mo.addr.i27, align 4
  %18 = load i32, ptr %mo.addr.i27, align 4
  switch i32 %18, label %sw.epilog.i33 [
    i32 0, label %sw.bb.i32
    i32 1, label %sw.bb1.i31
    i32 2, label %sw.bb2.i30
    i32 3, label %sw.bb3.i29
    i32 4, label %sw.bb4.i28
  ]

sw.bb.i32:                                        ; preds = %atomic_store_b.exit
  store i32 0, ptr %retval.i26, align 4
  br label %atomic_enum_to_builtin.exit34

sw.bb1.i31:                                       ; preds = %atomic_store_b.exit
  store i32 2, ptr %retval.i26, align 4
  br label %atomic_enum_to_builtin.exit34

sw.bb2.i30:                                       ; preds = %atomic_store_b.exit
  store i32 3, ptr %retval.i26, align 4
  br label %atomic_enum_to_builtin.exit34

sw.bb3.i29:                                       ; preds = %atomic_store_b.exit
  store i32 4, ptr %retval.i26, align 4
  br label %atomic_enum_to_builtin.exit34

sw.bb4.i28:                                       ; preds = %atomic_store_b.exit
  store i32 5, ptr %retval.i26, align 4
  br label %atomic_enum_to_builtin.exit34

sw.epilog.i33:                                    ; preds = %atomic_store_b.exit
  unreachable

atomic_enum_to_builtin.exit34:                    ; preds = %sw.bb4.i28, %sw.bb3.i29, %sw.bb2.i30, %sw.bb1.i31, %sw.bb.i32
  %19 = load i32, ptr %retval.i26, align 4
  switch i32 %19, label %monotonic.i [
    i32 3, label %release.i
    i32 5, label %seqcst.i
  ]

monotonic.i:                                      ; preds = %atomic_enum_to_builtin.exit34
  %20 = load i64, ptr %val.addr.i, align 8
  store atomic i64 %20, ptr %16 monotonic, align 8
  br label %atomic_store_p.exit

release.i:                                        ; preds = %atomic_enum_to_builtin.exit34
  %21 = load i64, ptr %val.addr.i, align 8
  store atomic i64 %21, ptr %16 release, align 8
  br label %atomic_store_p.exit

seqcst.i:                                         ; preds = %atomic_enum_to_builtin.exit34
  %22 = load i64, ptr %val.addr.i, align 8
  store atomic i64 %22, ptr %16 seq_cst, align 8
  br label %atomic_store_p.exit

atomic_store_p.exit:                              ; preds = %seqcst.i, %release.i, %monotonic.i
  ret void
}