; Function Attrs: nounwind uwtable
define hidden void @extent_dss_boot() local_unnamed_addr #1 {
entry:
  %call.i = tail call ptr @sbrk(i64 noundef 0) #6
  store ptr %call.i, ptr @dss_base, align 8
  store atomic i8 0, ptr @dss_extending monotonic, align 1
  %cmp = icmp eq ptr %call.i, inttoptr (i64 -1 to ptr)
  %frombool.i = zext i1 %cmp to i8
  store atomic i8 %frombool.i, ptr @dss_exhausted.0 monotonic, align 1
  %0 = ptrtoint ptr %call.i to i64
  store atomic i64 %0, ptr @dss_max.0 monotonic, align 8
  ret void
}